; ModuleID = '61/834.c'
source_filename = "61/834.c"
target datalayout = "e-m:e-p270:32:32-p271:32:32-p272:64:64-i64:64-f80:128-n8:16:32:64-S128"
target triple = "x86_64-pc-linux-gnu"

@.str = private unnamed_addr constant [3 x i8] c"%d\00", align 1
@.str.1 = private unnamed_addr constant [4 x i8] c"%d\0A\00", align 1

; Function Attrs: noinline nounwind uwtable
define dso_local i32 @main() #0 {
  %1 = alloca i32, align 4
  %2 = alloca i32, align 4
  %3 = alloca i32, align 4
  %4 = alloca i32, align 4
  %5 = alloca i32, align 4
  %6 = alloca i32, align 4
  %7 = alloca [21 x i32], align 16
  store i32 0, i32* %1, align 4
  %8 = call i32 (i8*, ...) @__isoc99_scanf(i8* getelementptr inbounds ([3 x i8], [3 x i8]* @.str, i64 0, i64 0), i32* %2)
  store i32 1, i32* %4, align 4
  br label %9

9:                                                ; preds = %46, %0
  %10 = load i32, i32* %4, align 4
  %11 = load i32, i32* %2, align 4
  %12 = icmp sle i32 %10, %11
  br i1 %12, label %13, label %49

13:                                               ; preds = %9
  %14 = call i32 (i8*, ...) @__isoc99_scanf(i8* getelementptr inbounds ([3 x i8], [3 x i8]* @.str, i64 0, i64 0), i32* %5)
  store i32 3, i32* %3, align 4
  br label %15

15:                                               ; preds = %36, %13
  %16 = load i32, i32* %3, align 4
  %17 = load i32, i32* %5, align 4
  %18 = icmp sle i32 %16, %17
  br i1 %18, label %19, label %39

19:                                               ; preds = %15
  %20 = getelementptr inbounds [21 x i32], [21 x i32]* %7, i64 0, i64 1
  store i32 1, i32* %20, align 4
  %21 = getelementptr inbounds [21 x i32], [21 x i32]* %7, i64 0, i64 2
  store i32 1, i32* %21, align 8
  %22 = load i32, i32* %3, align 4
  %23 = sub nsw i32 %22, 1
  %24 = sext i32 %23 to i64
  %25 = getelementptr inbounds [21 x i32], [21 x i32]* %7, i64 0, i64 %24
  %26 = load i32, i32* %25, align 4
  %27 = load i32, i32* %3, align 4
  %28 = sub nsw i32 %27, 2
  %29 = sext i32 %28 to i64
  %30 = getelementptr inbounds [21 x i32], [21 x i32]* %7, i64 0, i64 %29
  %31 = load i32, i32* %30, align 4
  %32 = add nsw i32 %26, %31
  %33 = load i32, i32* %3, align 4
  %34 = sext i32 %33 to i64
  %35 = getelementptr inbounds [21 x i32], [21 x i32]* %7, i64 0, i64 %34
  store i32 %32, i32* %35, align 4
  br label %36

36:                                               ; preds = %19
  %37 = load i32, i32* %3, align 4
  %38 = add nsw i32 %37, 1
  store i32 %38, i32* %3, align 4
  br label %15

39:                                               ; preds = %15
  %40 = load i32, i32* %5, align 4
  %41 = sext i32 %40 to i64
  %42 = getelementptr inbounds [21 x i32], [21 x i32]* %7, i64 0, i64 %41
  %43 = load i32, i32* %42, align 4
  store i32 %43, i32* %6, align 4
  %44 = load i32, i32* %6, align 4
  %45 = call i32 (i8*, ...) @printf(i8* getelementptr inbounds ([4 x i8], [4 x i8]* @.str.1, i64 0, i64 0), i32 %44)
  br label %46

46:                                               ; preds = %39
  %47 = load i32, i32* %4, align 4
  %48 = add nsw i32 %47, 1
  store i32 %48, i32* %4, align 4
  br label %9

49:                                               ; preds = %9
  %50 = call i32 @getchar()
  %51 = call i32 @getchar()
  %52 = load i32, i32* %1, align 4
  ret i32 %52
}

declare dso_local i32 @__isoc99_scanf(i8*, ...) #1

declare dso_local i32 @printf(i8*, ...) #1

declare dso_local i32 @getchar() #1


!llvm.module.flags = !{!0}
!llvm.ident = !{!1}

!0 = !{i32 1, !"wchar_size", i32 4}
!1 = !{!"clang version 10.0.0-4ubuntu1 "}
