; ModuleID = 'source-C-CXX/60/834.c'
source_filename = "source-C-CXX/60/834.c"
target datalayout = "e-m:e-p270:32:32-p271:32:32-p272:64:64-i64:64-f80:128-n8:16:32:64-S128"
target triple = "x86_64-pc-linux-gnu"

%struct._IO_FILE = type { i32, i8*, i8*, i8*, i8*, i8*, i8*, i8*, i8*, i8*, i8*, i8*, %struct._IO_marker*, %struct._IO_FILE*, i32, i32, i64, i16, i8, [1 x i8], i8*, i64, %struct._IO_codecvt*, %struct._IO_wide_data*, %struct._IO_FILE*, i8*, i64, i32, [20 x i8] }
%struct._IO_marker = type opaque
%struct._IO_codecvt = type opaque
%struct._IO_wide_data = type opaque

@.str = private unnamed_addr constant [3 x i8] c"%d\00", align 1
@.str.1 = private unnamed_addr constant [4 x i8] c"%d\0A\00", align 1
@stdin = external local_unnamed_addr global %struct._IO_FILE*, align 8

; Function Attrs: nofree nounwind sspstrong uwtable
define dso_local i32 @main() local_unnamed_addr #0 {
  %1 = alloca i32, align 4
  %2 = alloca i32, align 4
  %3 = alloca [21 x i32], align 16
  %4 = bitcast i32* %1 to i8*
  call void @llvm.lifetime.start.p0i8(i64 4, i8* nonnull %4) #3
  %5 = bitcast i32* %2 to i8*
  call void @llvm.lifetime.start.p0i8(i64 4, i8* nonnull %5) #3
  %6 = bitcast [21 x i32]* %3 to i8*
  call void @llvm.lifetime.start.p0i8(i64 84, i8* nonnull %6) #3
  %7 = call i32 (i8*, ...) @__isoc99_scanf(i8* getelementptr inbounds ([3 x i8], [3 x i8]* @.str, i64 0, i64 0), i32* nonnull %1)
  %8 = getelementptr inbounds [21 x i32], [21 x i32]* %3, i64 0, i64 1
  %9 = getelementptr inbounds [21 x i32], [21 x i32]* %3, i64 0, i64 2
  %10 = load i32, i32* %1, align 4, !tbaa !5
  %11 = icmp slt i32 %10, 1
  br i1 %11, label %66, label %12

12:                                               ; preds = %0, %58
  %13 = phi i32 [ %63, %58 ], [ 1, %0 ]
  %14 = call i32 (i8*, ...) @__isoc99_scanf(i8* getelementptr inbounds ([3 x i8], [3 x i8]* @.str, i64 0, i64 0), i32* nonnull %2)
  %15 = load i32, i32* %2, align 4, !tbaa !5
  %16 = icmp slt i32 %15, 3
  br i1 %16, label %58, label %17

17:                                               ; preds = %12
  %18 = zext i32 %15 to i64
  %19 = and i64 %18, 1
  %20 = icmp eq i32 %15, 3
  br i1 %20, label %46, label %21

21:                                               ; preds = %17
  %22 = add nsw i64 %18, -2
  %23 = and i64 %22, -2
  br label %24

24:                                               ; preds = %24, %21
  %25 = phi i64 [ 3, %21 ], [ %43, %24 ]
  %26 = phi i64 [ %23, %21 ], [ %44, %24 ]
  store i32 1, i32* %8, align 4, !tbaa !5
  store i32 1, i32* %9, align 8, !tbaa !5
  %27 = add nsw i64 %25, -1
  %28 = getelementptr inbounds [21 x i32], [21 x i32]* %3, i64 0, i64 %27
  %29 = load i32, i32* %28, align 4, !tbaa !5
  %30 = add nsw i64 %25, -2
  %31 = getelementptr inbounds [21 x i32], [21 x i32]* %3, i64 0, i64 %30
  %32 = load i32, i32* %31, align 4, !tbaa !5
  %33 = add nsw i32 %32, %29
  %34 = getelementptr inbounds [21 x i32], [21 x i32]* %3, i64 0, i64 %25
  store i32 %33, i32* %34, align 4, !tbaa !5
  %35 = add nuw nsw i64 %25, 1
  store i32 1, i32* %8, align 4, !tbaa !5
  store i32 1, i32* %9, align 8, !tbaa !5
  %36 = getelementptr inbounds [21 x i32], [21 x i32]* %3, i64 0, i64 %25
  %37 = load i32, i32* %36, align 4, !tbaa !5
  %38 = add nsw i64 %25, -1
  %39 = getelementptr inbounds [21 x i32], [21 x i32]* %3, i64 0, i64 %38
  %40 = load i32, i32* %39, align 4, !tbaa !5
  %41 = add nsw i32 %40, %37
  %42 = getelementptr inbounds [21 x i32], [21 x i32]* %3, i64 0, i64 %35
  store i32 %41, i32* %42, align 4, !tbaa !5
  %43 = add nuw nsw i64 %25, 2
  %44 = add i64 %26, -2
  %45 = icmp eq i64 %44, 0
  br i1 %45, label %46, label %24, !llvm.loop !9

46:                                               ; preds = %24, %17
  %47 = phi i64 [ 3, %17 ], [ %43, %24 ]
  %48 = icmp eq i64 %19, 0
  br i1 %48, label %58, label %49

49:                                               ; preds = %46
  store i32 1, i32* %8, align 4, !tbaa !5
  store i32 1, i32* %9, align 8, !tbaa !5
  %50 = add nsw i64 %47, -1
  %51 = getelementptr inbounds [21 x i32], [21 x i32]* %3, i64 0, i64 %50
  %52 = load i32, i32* %51, align 4, !tbaa !5
  %53 = add nsw i64 %47, -2
  %54 = getelementptr inbounds [21 x i32], [21 x i32]* %3, i64 0, i64 %53
  %55 = load i32, i32* %54, align 4, !tbaa !5
  %56 = add nsw i32 %55, %52
  %57 = getelementptr inbounds [21 x i32], [21 x i32]* %3, i64 0, i64 %47
  store i32 %56, i32* %57, align 4, !tbaa !5
  br label %58

58:                                               ; preds = %49, %46, %12
  %59 = sext i32 %15 to i64
  %60 = getelementptr inbounds [21 x i32], [21 x i32]* %3, i64 0, i64 %59
  %61 = load i32, i32* %60, align 4, !tbaa !5
  %62 = call i32 (i8*, ...) @printf(i8* nonnull dereferenceable(1) getelementptr inbounds ([4 x i8], [4 x i8]* @.str.1, i64 0, i64 0), i32 %61)
  %63 = add nuw nsw i32 %13, 1
  %64 = load i32, i32* %1, align 4, !tbaa !5
  %65 = icmp slt i32 %13, %64
  br i1 %65, label %12, label %66, !llvm.loop !11

66:                                               ; preds = %58, %0
  %67 = load %struct._IO_FILE*, %struct._IO_FILE** @stdin, align 8, !tbaa !12
  %68 = call i32 @getc(%struct._IO_FILE* %67) #3
  %69 = load %struct._IO_FILE*, %struct._IO_FILE** @stdin, align 8, !tbaa !12
  %70 = call i32 @getc(%struct._IO_FILE* %69) #3
  call void @llvm.lifetime.end.p0i8(i64 84, i8* nonnull %6) #3
  call void @llvm.lifetime.end.p0i8(i64 4, i8* nonnull %5) #3
  call void @llvm.lifetime.end.p0i8(i64 4, i8* nonnull %4) #3
  ret i32 0
}

; Function Attrs: argmemonly mustprogress nofree nosync nounwind willreturn
declare void @llvm.lifetime.start.p0i8(i64 immarg, i8* nocapture) #1

; Function Attrs: nofree nounwind
declare noundef i32 @__isoc99_scanf(i8* nocapture noundef readonly, ...) local_unnamed_addr #2

; Function Attrs: nofree nounwind
declare noundef i32 @printf(i8* nocapture noundef readonly, ...) local_unnamed_addr #2

; Function Attrs: argmemonly mustprogress nofree nosync nounwind willreturn
declare void @llvm.lifetime.end.p0i8(i64 immarg, i8* nocapture) #1

; Function Attrs: nofree nounwind
declare noundef i32 @getc(%struct._IO_FILE* nocapture noundef) local_unnamed_addr #2


!llvm.module.flags = !{!0, !1, !2, !3}
!llvm.ident = !{!4}

!0 = !{i32 1, !"wchar_size", i32 4}
!1 = !{i32 7, !"PIC Level", i32 2}
!2 = !{i32 7, !"PIE Level", i32 2}
!3 = !{i32 7, !"uwtable", i32 1}
!4 = !{!"clang version 13.0.0"}
!5 = !{!6, !6, i64 0}
!6 = !{!"int", !7, i64 0}
!7 = !{!"omnipotent char", !8, i64 0}
!8 = !{!"Simple C/C++ TBAA"}
!9 = distinct !{!9, !10}
!10 = !{!"llvm.loop.mustprogress"}
!11 = distinct !{!11, !10}
!12 = !{!13, !13, i64 0}
!13 = !{!"any pointer", !7, i64 0}
